target datalayout = "e-m:e-p270:32:32-p271:32:32-p272:64:64-i64:64-i128:128-f80:128-n8:16:32:64-S128"
target triple = "x86_64-pc-linux-gnu"

%"class.std::__cxx11::basic_string" = type { %"struct.std::__cxx11::basic_string<char>::_Alloc_hider", i64, %union.anon }
%"struct.std::__cxx11::basic_string<char>::_Alloc_hider" = type { ptr }
%union.anon = type { i64, [8 x i8] }
%"class.rocksdb::Status" = type { i8, i8, i8, i8, i8, i8, %"class.std::unique_ptr" }
%"class.std::unique_ptr" = type { %"struct.std::__uniq_ptr_data" }
%"struct.std::__uniq_ptr_data" = type { %"class.std::__uniq_ptr_impl" }
%"class.std::__uniq_ptr_impl" = type { %"class.std::tuple" }
%"class.std::tuple" = type { %"struct.std::_Tuple_impl" }
%"struct.std::_Tuple_impl" = type { %"struct.std::_Head_base.1" }
%"struct.std::_Head_base.1" = type { ptr }
%"class.std::unique_ptr.24" = type { %"struct.std::__uniq_ptr_data.25" }
%"struct.std::__uniq_ptr_data.25" = type { %"class.std::__uniq_ptr_impl.26" }
%"class.std::__uniq_ptr_impl.26" = type { %"class.std::tuple.27" }
%"class.std::tuple.27" = type { %"struct.std::_Tuple_impl.28" }
%"struct.std::_Tuple_impl.28" = type { %"struct.std::_Head_base.31" }
%"struct.std::_Head_base.31" = type { ptr }
%"struct.rocksdb::FileState" = type { %"class.std::__cxx11::basic_string", i64, i64, i64 }
%"class.rocksdb::TestWritableFile" = type { %"class.rocksdb::WritableFile.base", %"struct.rocksdb::FileState", %"class.std::unique_ptr.24", i8, ptr }
%"class.rocksdb::WritableFile.base" = type <{ ptr, i64, i64, i32, i32, i8 }>

; Function Attrs: mustprogress nounwind uwtable
define linkonce_odr noundef nonnull align 1 dereferenceable(1) ptr @_ZNSt10_Head_baseILm1ESt14default_deleteIA_KcELb1EE7_M_headERS4_(ptr noundef nonnull align 1 dereferenceable(1) %0) #2 comdat align 2 {
  %2 = alloca ptr, align 8
  store ptr %0, ptr %2, align 8, !tbaa !328
  %3 = load ptr, ptr %2, align 8, !tbaa !328
  ret ptr %3
}

; Function Attrs: mustprogress nounwind uwtable
define linkonce_odr noundef nonnull align 1 dereferenceable(1) ptr @_ZNSt11_Tuple_implILm1EJSt14default_deleteIA_KcEEE7_M_headERS4_(ptr noundef nonnull align 1 dereferenceable(1) %0) #2 comdat align 2 {
  %2 = alloca ptr, align 8
  store ptr %0, ptr %2, align 8, !tbaa !326
  %3 = load ptr, ptr %2, align 8, !tbaa !326
  %4 = call noundef nonnull align 1 dereferenceable(1) ptr @_ZNSt10_Head_baseILm1ESt14default_deleteIA_KcELb1EE7_M_headERS4_(ptr noundef nonnull align 1 dereferenceable(1) %3) #17
  ret ptr %4
}

; Function Attrs: mustprogress nounwind uwtable
define linkonce_odr noundef nonnull align 8 dereferenceable(8) ptr @_ZNSt10_Head_baseILm0EPKcLb0EE7_M_headERS2_(ptr noundef nonnull align 8 dereferenceable(8) %0) #2 comdat align 2 {
  %2 = alloca ptr, align 8
  store ptr %0, ptr %2, align 8, !tbaa !324
  %3 = load ptr, ptr %2, align 8, !tbaa !324
  %4 = getelementptr inbounds nuw %"struct.std::_Head_base.1", ptr %3, i32 0, i32 0
  ret ptr %4
}

; Function Attrs: mustprogress nounwind uwtable
define linkonce_odr noundef nonnull align 8 dereferenceable(8) ptr @_ZNSt10_Head_baseILm0EPN7rocksdb12WritableFileELb0EE7_M_headERKS3_(ptr noundef nonnull align 8 dereferenceable(8) %0) #2 comdat align 2 {
  %2 = alloca ptr, align 8
  store ptr %0, ptr %2, align 8, !tbaa !340
  %3 = load ptr, ptr %2, align 8, !tbaa !340
  %4 = getelementptr inbounds nuw %"struct.std::_Head_base.31", ptr %3, i32 0, i32 0
  ret ptr %4
}

; Function Attrs: mustprogress nounwind uwtable
define linkonce_odr noundef nonnull align 1 dereferenceable(1) ptr @_ZSt12__get_helperILm1ESt14default_deleteIA_KcEJEERT0_RSt11_Tuple_implIXT_EJS4_DpT1_EE(ptr noundef nonnull align 1 dereferenceable(1) %0) #2 comdat {
  %2 = alloca ptr, align 8
  store ptr %0, ptr %2, align 8, !tbaa !326
  %3 = load ptr, ptr %2, align 8, !tbaa !326
  %4 = call noundef nonnull align 1 dereferenceable(1) ptr @_ZNSt11_Tuple_implILm1EJSt14default_deleteIA_KcEEE7_M_headERS4_(ptr noundef nonnull align 1 dereferenceable(1) %3) #17
  ret ptr %4
}

; Function Attrs: mustprogress nounwind uwtable
define linkonce_odr noundef nonnull align 8 dereferenceable(8) ptr @_ZNSt11_Tuple_implILm0EJPKcSt14default_deleteIA_S0_EEE7_M_headERS5_(ptr noundef nonnull align 8 dereferenceable(8) %0) #2 comdat align 2 {
  %2 = alloca ptr, align 8
  store ptr %0, ptr %2, align 8, !tbaa !322
  %3 = load ptr, ptr %2, align 8, !tbaa !322
  %4 = call noundef nonnull align 8 dereferenceable(8) ptr @_ZNSt10_Head_baseILm0EPKcLb0EE7_M_headERS2_(ptr noundef nonnull align 8 dereferenceable(8) %3) #17
  ret ptr %4
}

; Function Attrs: mustprogress nounwind uwtable
define linkonce_odr noundef nonnull align 8 dereferenceable(8) ptr @_ZNSt11_Tuple_implILm0EJPN7rocksdb12WritableFileESt14default_deleteIS1_EEE7_M_headERKS5_(ptr noundef nonnull align 8 dereferenceable(8) %0) #2 comdat align 2 {
  %2 = alloca ptr, align 8
  store ptr %0, ptr %2, align 8, !tbaa !336
  %3 = load ptr, ptr %2, align 8, !tbaa !336
  %4 = call noundef nonnull align 8 dereferenceable(8) ptr @_ZNSt10_Head_baseILm0EPN7rocksdb12WritableFileELb0EE7_M_headERKS3_(ptr noundef nonnull align 8 dereferenceable(8) %3) #17
  ret ptr %4
}

; Function Attrs: mustprogress nounwind uwtable
define linkonce_odr noundef nonnull align 1 dereferenceable(1) ptr @_ZSt3getILm1EJPKcSt14default_deleteIA_S0_EEERNSt13tuple_elementIXT_ESt5tupleIJDpT0_EEE4typeERS9_(ptr noundef nonnull align 8 dereferenceable(8) %0) #2 comdat {
  %2 = alloca ptr, align 8
  store ptr %0, ptr %2, align 8, !tbaa !320
  %3 = load ptr, ptr %2, align 8, !tbaa !320
  %4 = call noundef nonnull align 1 dereferenceable(1) ptr @_ZSt12__get_helperILm1ESt14default_deleteIA_KcEJEERT0_RSt11_Tuple_implIXT_EJS4_DpT1_EE(ptr noundef nonnull align 1 dereferenceable(1) %3) #17
  ret ptr %4
}

; Function Attrs: mustprogress nounwind uwtable
define linkonce_odr noundef nonnull align 8 dereferenceable(8) ptr @_ZSt12__get_helperILm0EPKcJSt14default_deleteIA_S0_EEERT0_RSt11_Tuple_implIXT_EJS5_DpT1_EE(ptr noundef nonnull align 8 dereferenceable(8) %0) #2 comdat {
  %2 = alloca ptr, align 8
  store ptr %0, ptr %2, align 8, !tbaa !322
  %3 = load ptr, ptr %2, align 8, !tbaa !322
  %4 = call noundef nonnull align 8 dereferenceable(8) ptr @_ZNSt11_Tuple_implILm0EJPKcSt14default_deleteIA_S0_EEE7_M_headERS5_(ptr noundef nonnull align 8 dereferenceable(8) %3) #17
  ret ptr %4
}

; Function Attrs: mustprogress nounwind uwtable
define linkonce_odr noundef nonnull align 8 dereferenceable(8) ptr @_ZSt12__get_helperILm0EPN7rocksdb12WritableFileEJSt14default_deleteIS1_EEERKT0_RKSt11_Tuple_implIXT_EJS5_DpT1_EE(ptr noundef nonnull align 8 dereferenceable(8) %0) #2 comdat {
  %2 = alloca ptr, align 8
  store ptr %0, ptr %2, align 8, !tbaa !336
  %3 = load ptr, ptr %2, align 8, !tbaa !336
  %4 = call noundef nonnull align 8 dereferenceable(8) ptr @_ZNSt11_Tuple_implILm0EJPN7rocksdb12WritableFileESt14default_deleteIS1_EEE7_M_headERKS5_(ptr noundef nonnull align 8 dereferenceable(8) %3) #17
  ret ptr %4
}

; Function Attrs: mustprogress nounwind uwtable
define linkonce_odr noundef nonnull align 1 dereferenceable(1) ptr @_ZNSt15__uniq_ptr_implIKcSt14default_deleteIA_S0_EE10_M_deleterEv(ptr noundef nonnull align 8 dereferenceable(8) %0) #2 comdat align 2 {
  %2 = alloca ptr, align 8
  store ptr %0, ptr %2, align 8, !tbaa !316
  %3 = load ptr, ptr %2, align 8
  %4 = getelementptr inbounds nuw %"class.std::__uniq_ptr_impl", ptr %3, i32 0, i32 0
  %5 = call noundef nonnull align 1 dereferenceable(1) ptr @_ZSt3getILm1EJPKcSt14default_deleteIA_S0_EEERNSt13tuple_elementIXT_ESt5tupleIJDpT0_EEE4typeERS9_(ptr noundef nonnull align 8 dereferenceable(8) %4) #17
  ret ptr %5
}

; Function Attrs: mustprogress nounwind uwtable
define linkonce_odr noundef nonnull align 8 dereferenceable(8) ptr @_ZSt3getILm0EJPKcSt14default_deleteIA_S0_EEERNSt13tuple_elementIXT_ESt5tupleIJDpT0_EEE4typeERS9_(ptr noundef nonnull align 8 dereferenceable(8) %0) #2 comdat {
  %2 = alloca ptr, align 8
  store ptr %0, ptr %2, align 8, !tbaa !320
  %3 = load ptr, ptr %2, align 8, !tbaa !320
  %4 = call noundef nonnull align 8 dereferenceable(8) ptr @_ZSt12__get_helperILm0EPKcJSt14default_deleteIA_S0_EEERT0_RSt11_Tuple_implIXT_EJS5_DpT1_EE(ptr noundef nonnull align 8 dereferenceable(8) %3) #17
  ret ptr %4
}

; Function Attrs: mustprogress nounwind uwtable
define linkonce_odr noundef nonnull align 8 dereferenceable(8) ptr @_ZSt3getILm0EJPN7rocksdb12WritableFileESt14default_deleteIS1_EEERKNSt13tuple_elementIXT_ESt5tupleIJDpT0_EEE4typeERKS9_(ptr noundef nonnull align 8 dereferenceable(8) %0) #2 comdat {
  %2 = alloca ptr, align 8
  store ptr %0, ptr %2, align 8, !tbaa !334
  %3 = load ptr, ptr %2, align 8, !tbaa !334
  %4 = call noundef nonnull align 8 dereferenceable(8) ptr @_ZSt12__get_helperILm0EPN7rocksdb12WritableFileEJSt14default_deleteIS1_EEERKT0_RKSt11_Tuple_implIXT_EJS5_DpT1_EE(ptr noundef nonnull align 8 dereferenceable(8) %3) #17
  ret ptr %4
}

; Function Attrs: mustprogress nounwind uwtable
define linkonce_odr void @_ZNKSt14default_deleteIA_KcEclIS0_EENSt9enable_ifIXsr14is_convertibleIPA_T_PS1_EE5valueEvE4typeEPS5_(ptr noundef nonnull align 1 dereferenceable(1) %0, ptr noundef %1) #2 comdat align 2 {
  %3 = alloca ptr, align 8
  %4 = alloca ptr, align 8
  store ptr %0, ptr %3, align 8, !tbaa !318
  store ptr %1, ptr %4, align 8, !tbaa !11
  %5 = load ptr, ptr %4, align 8, !tbaa !11
  %6 = icmp eq ptr %5, null
  br i1 %6, label %8, label %7

7:                                                ; preds = %2
  call void @_ZdaPv(ptr noundef %5) #21
  br label %8

8:                                                ; preds = %7, %2
  ret void
}

; Function Attrs: mustprogress nounwind uwtable
define linkonce_odr noundef nonnull align 1 dereferenceable(1) ptr @_ZNSt10unique_ptrIA_KcSt14default_deleteIS1_EE11get_deleterEv(ptr noundef nonnull align 8 dereferenceable(8) %0) #2 comdat align 2 {
  %2 = alloca ptr, align 8
  store ptr %0, ptr %2, align 8, !tbaa !312
  %3 = load ptr, ptr %2, align 8
  %4 = getelementptr inbounds nuw %"class.std::unique_ptr", ptr %3, i32 0, i32 0
  %5 = call noundef nonnull align 1 dereferenceable(1) ptr @_ZNSt15__uniq_ptr_implIKcSt14default_deleteIA_S0_EE10_M_deleterEv(ptr noundef nonnull align 8 dereferenceable(8) %4) #17
  ret ptr %5
}

; Function Attrs: mustprogress nounwind uwtable
define linkonce_odr noundef nonnull align 8 dereferenceable(8) ptr @_ZNSt15__uniq_ptr_implIKcSt14default_deleteIA_S0_EE6_M_ptrEv(ptr noundef nonnull align 8 dereferenceable(8) %0) #2 comdat align 2 {
  %2 = alloca ptr, align 8
  store ptr %0, ptr %2, align 8, !tbaa !316
  %3 = load ptr, ptr %2, align 8
  %4 = getelementptr inbounds nuw %"class.std::__uniq_ptr_impl", ptr %3, i32 0, i32 0
  %5 = call noundef nonnull align 8 dereferenceable(8) ptr @_ZSt3getILm0EJPKcSt14default_deleteIA_S0_EEERNSt13tuple_elementIXT_ESt5tupleIJDpT0_EEE4typeERS9_(ptr noundef nonnull align 8 dereferenceable(8) %4) #17
  ret ptr %5
}

; Function Attrs: mustprogress nounwind uwtable
define linkonce_odr noundef ptr @_ZNKSt15__uniq_ptr_implIN7rocksdb12WritableFileESt14default_deleteIS1_EE6_M_ptrEv(ptr noundef nonnull align 8 dereferenceable(8) %0) #2 comdat align 2 {
  %2 = alloca ptr, align 8
  store ptr %0, ptr %2, align 8, !tbaa !332
  %3 = load ptr, ptr %2, align 8
  %4 = getelementptr inbounds nuw %"class.std::__uniq_ptr_impl.26", ptr %3, i32 0, i32 0
  %5 = call noundef nonnull align 8 dereferenceable(8) ptr @_ZSt3getILm0EJPN7rocksdb12WritableFileESt14default_deleteIS1_EEERKNSt13tuple_elementIXT_ESt5tupleIJDpT0_EEE4typeERKS9_(ptr noundef nonnull align 8 dereferenceable(8) %4) #17
  %6 = load ptr, ptr %5, align 8, !tbaa !61
  ret ptr %6
}

; Function Attrs: mustprogress nounwind uwtable
define linkonce_odr void @_ZNSt10unique_ptrIA_KcSt14default_deleteIS1_EED2Ev(ptr noundef nonnull align 8 dereferenceable(8) %0) unnamed_addr #2 comdat align 2 {
  %2 = alloca ptr, align 8
  %3 = alloca ptr, align 8
  store ptr %0, ptr %2, align 8, !tbaa !312
  %4 = load ptr, ptr %2, align 8
  call void @llvm.lifetime.start.p0(i64 8, ptr %3) #17
  %5 = getelementptr inbounds nuw %"class.std::unique_ptr", ptr %4, i32 0, i32 0
  %6 = call noundef nonnull align 8 dereferenceable(8) ptr @_ZNSt15__uniq_ptr_implIKcSt14default_deleteIA_S0_EE6_M_ptrEv(ptr noundef nonnull align 8 dereferenceable(8) %5) #17
  store ptr %6, ptr %3, align 8, !tbaa !63
  %7 = load ptr, ptr %3, align 8, !tbaa !63
  %8 = load ptr, ptr %7, align 8, !tbaa !11
  %9 = icmp ne ptr %8, null
  br i1 %9, label %10, label %14

10:                                               ; preds = %1
  %11 = call noundef nonnull align 1 dereferenceable(1) ptr @_ZNSt10unique_ptrIA_KcSt14default_deleteIS1_EE11get_deleterEv(ptr noundef nonnull align 8 dereferenceable(8) %4) #17
  %12 = load ptr, ptr %3, align 8, !tbaa !63
  %13 = load ptr, ptr %12, align 8, !tbaa !11
  call void @_ZNKSt14default_deleteIA_KcEclIS0_EENSt9enable_ifIXsr14is_convertibleIPA_T_PS1_EE5valueEvE4typeEPS5_(ptr noundef nonnull align 1 dereferenceable(1) %11, ptr noundef %13)
  br label %14

14:                                               ; preds = %10, %1
  %15 = load ptr, ptr %3, align 8, !tbaa !63
  store ptr null, ptr %15, align 8, !tbaa !11
  call void @llvm.lifetime.end.p0(i64 8, ptr %3) #17
  ret void
}

; Function Attrs: mustprogress nounwind uwtable
define linkonce_odr noundef zeroext i8 @_ZNK7rocksdb6Status4codeEv(ptr noundef nonnull align 8 dereferenceable(16) %0) #2 comdat align 2 {
  %2 = alloca ptr, align 8
  store ptr %0, ptr %2, align 8, !tbaa !23
  %3 = load ptr, ptr %2, align 8
  call void @_ZNK7rocksdb6Status11MarkCheckedEv(ptr noundef nonnull align 8 dereferenceable(16) %3)
  %4 = getelementptr inbounds nuw %"class.rocksdb::Status", ptr %3, i32 0, i32 0
  %5 = load i8, ptr %4, align 8, !tbaa !34
  ret i8 %5
}

; Function Attrs: inlinehint mustprogress nounwind uwtable
define linkonce_odr void @_ZNK7rocksdb6Status11MarkCheckedEv(ptr noundef nonnull align 8 dereferenceable(16) %0) #6 comdat align 2 {
  %2 = alloca ptr, align 8
  store ptr %0, ptr %2, align 8, !tbaa !23
  ret void
}

; Function Attrs: mustprogress nounwind uwtable
define linkonce_odr noundef ptr @_ZNKSt10unique_ptrIN7rocksdb12WritableFileESt14default_deleteIS1_EE3getEv(ptr noundef nonnull align 8 dereferenceable(8) %0) #2 comdat align 2 {
  %2 = alloca ptr, align 8
  store ptr %0, ptr %2, align 8, !tbaa !56
  %3 = load ptr, ptr %2, align 8
  %4 = getelementptr inbounds nuw %"class.std::unique_ptr.24", ptr %3, i32 0, i32 0
  %5 = call noundef ptr @_ZNKSt15__uniq_ptr_implIN7rocksdb12WritableFileESt14default_deleteIS1_EE6_M_ptrEv(ptr noundef nonnull align 8 dereferenceable(8) %4) #17
  ret ptr %5
}

; Function Attrs: mustprogress nounwind uwtable
define linkonce_odr void @_ZN7rocksdb6StatusD2Ev(ptr noundef nonnull align 8 dereferenceable(16) %0) unnamed_addr #2 comdat align 2 {
  %2 = alloca ptr, align 8
  store ptr %0, ptr %2, align 8, !tbaa !23
  %3 = load ptr, ptr %2, align 8
  %4 = getelementptr inbounds nuw %"class.rocksdb::Status", ptr %3, i32 0, i32 6
  call void @_ZNSt10unique_ptrIA_KcSt14default_deleteIS1_EED2Ev(ptr noundef nonnull align 8 dereferenceable(8) %4) #17
  ret void
}

; Function Attrs: mustprogress uwtable
define linkonce_odr noundef zeroext i1 @_ZNK7rocksdb6Status2okEv(ptr noundef nonnull align 8 dereferenceable(16) %0) #0 comdat align 2 {
  %2 = alloca ptr, align 8
  store ptr %0, ptr %2, align 8, !tbaa !23
  %3 = load ptr, ptr %2, align 8
  call void @_ZNK7rocksdb6Status11MarkCheckedEv(ptr noundef nonnull align 8 dereferenceable(16) %3)
  %4 = call noundef zeroext i8 @_ZNK7rocksdb6Status4codeEv(ptr noundef nonnull align 8 dereferenceable(16) %3)
  %5 = zext i8 %4 to i32
  %6 = icmp eq i32 %5, 0
  ret i1 %6
}

; Function Attrs: mustprogress nounwind uwtable
define linkonce_odr noundef ptr @_ZNKSt10unique_ptrIN7rocksdb12WritableFileESt14default_deleteIS1_EEptEv(ptr noundef nonnull align 8 dereferenceable(8) %0) #2 comdat align 2 {
  %2 = alloca ptr, align 8
  store ptr %0, ptr %2, align 8, !tbaa !56
  %3 = load ptr, ptr %2, align 8
  %4 = call noundef ptr @_ZNKSt10unique_ptrIN7rocksdb12WritableFileESt14default_deleteIS1_EE3getEv(ptr noundef nonnull align 8 dereferenceable(8) %3) #17
  ret ptr %4
}

; Function Attrs: mustprogress uwtable
define void @_ZN7rocksdb16TestWritableFile5CloseEv(ptr dead_on_unwind noalias writable sret(%"class.rocksdb::Status") align 8 %0, ptr noundef nonnull align 8 dereferenceable(120) %1) unnamed_addr #0 align 2 personality ptr @__gxx_personality_v0 {
  %3 = alloca ptr, align 8
  %4 = alloca ptr, align 8
  %5 = alloca i1, align 1
  %6 = alloca ptr, align 8
  %7 = alloca i32, align 4
  store ptr %0, ptr %3, align 8
  store ptr %1, ptr %4, align 8, !tbaa !159
  %8 = load ptr, ptr %4, align 8
  %9 = getelementptr inbounds nuw %"class.rocksdb::TestWritableFile", ptr %8, i32 0, i32 3
  store i8 0, ptr %9, align 8, !tbaa !161
  store i1 false, ptr %5, align 1
  %10 = getelementptr inbounds nuw %"class.rocksdb::TestWritableFile", ptr %8, i32 0, i32 2
  %11 = call noundef ptr @_ZNKSt10unique_ptrIN7rocksdb12WritableFileESt14default_deleteIS1_EEptEv(ptr noundef nonnull align 8 dereferenceable(8) %10) #17
  %12 = load ptr, ptr %11, align 8, !tbaa !17
  %13 = getelementptr inbounds ptr, ptr %12, i64 7
  %14 = load ptr, ptr %13, align 8
  call void %14(ptr dead_on_unwind writable sret(%"class.rocksdb::Status") align 8 %0, ptr noundef nonnull align 8 dereferenceable(33) %11)
  %15 = invoke noundef zeroext i1 @_ZNK7rocksdb6Status2okEv(ptr noundef nonnull align 8 dereferenceable(16) %0)
          to label %16 unwind label %22

16:                                               ; preds = %2
  br i1 %15, label %17, label %26

17:                                               ; preds = %16
  %18 = getelementptr inbounds nuw %"class.rocksdb::TestWritableFile", ptr %8, i32 0, i32 4
  %19 = load ptr, ptr %18, align 8, !tbaa !172
  %20 = getelementptr inbounds nuw %"class.rocksdb::TestWritableFile", ptr %8, i32 0, i32 1
  invoke void @_ZN7rocksdb21FaultInjectionTestEnv18WritableFileClosedERKNS_9FileStateE(ptr noundef nonnull align 8 dereferenceable(312) %19, ptr noundef nonnull align 8 dereferenceable(56) %20)
          to label %21 unwind label %22

21:                                               ; preds = %17
  br label %26

22:                                               ; preds = %17, %2
  %23 = landingpad { ptr, i32 }
          cleanup
  %24 = extractvalue { ptr, i32 } %23, 0
  store ptr %24, ptr %6, align 8
  %25 = extractvalue { ptr, i32 } %23, 1
  store i32 %25, ptr %7, align 4
  call void @_ZN7rocksdb6StatusD2Ev(ptr noundef nonnull align 8 dereferenceable(16) %0) #17
  br label %30

26:                                               ; preds = %21, %16
  store i1 true, ptr %5, align 1
  %27 = load i1, ptr %5, align 1
  br i1 %27, label %29, label %28

28:                                               ; preds = %26
  call void @_ZN7rocksdb6StatusD2Ev(ptr noundef nonnull align 8 dereferenceable(16) %0) #17
  br label %29

29:                                               ; preds = %28, %26
  ret void

30:                                               ; preds = %22
  %31 = load ptr, ptr %6, align 8
  %32 = load i32, ptr %7, align 4
  %33 = insertvalue { ptr, i32 } poison, ptr %31, 0
  %34 = insertvalue { ptr, i32 } %33, i32 %32, 1
  resume { ptr, i32 } %34
}