; Function Attrs: mustprogress uwtable
define void @_ZN7rocksdb16TestWritableFile5CloseEv(ptr dead_on_unwind noalias writable sret(%"class.rocksdb::Status") align 8 %0, ptr noundef nonnull align 8 dereferenceable(120) initializes((104, 105)) %1) unnamed_addr #0 align 2 personality ptr @__gxx_personality_v0 {
  %3 = getelementptr inbounds nuw i8, ptr %1, i64 104
  store i8 0, ptr %3, align 8, !tbaa !178
  %4 = getelementptr inbounds nuw i8, ptr %1, i64 96
  %5 = load ptr, ptr %4, align 8, !tbaa !67
  %6 = load ptr, ptr %5, align 8, !tbaa !22
  %7 = getelementptr inbounds nuw i8, ptr %6, i64 56
  %8 = load ptr, ptr %7, align 8
  tail call void %8(ptr dead_on_unwind writable sret(%"class.rocksdb::Status") align 8 %0, ptr noundef nonnull align 8 dereferenceable(33) %5)
  %9 = load i8, ptr %0, align 8, !tbaa !24
  %10 = icmp eq i8 %9, 0
  br i1 %10, label %11, label %19

11:                                               ; preds = %2
  %12 = getelementptr inbounds nuw i8, ptr %1, i64 112
  %13 = load ptr, ptr %12, align 8, !tbaa !185
  %14 = getelementptr inbounds nuw i8, ptr %1, i64 40
  invoke void @_ZN7rocksdb21FaultInjectionTestEnv18WritableFileClosedERKNS_9FileStateE(ptr noundef nonnull align 8 dereferenceable(312) %13, ptr noundef nonnull align 8 dereferenceable(56) %14)
          to label %19 unwind label %15

15:                                               ; preds = %11
  %16 = landingpad { ptr, i32 }
          cleanup
  %17 = getelementptr inbounds nuw i8, ptr %0, i64 8
  %18 = load ptr, ptr %17, align 8, !tbaa !53
  %.not.i.i = icmp eq ptr %18, null
  br i1 %.not.i.i, label %_ZN7rocksdb6StatusD2Ev.exit, label %_ZNKSt14default_deleteIA_KcEclIS0_EENSt9enable_ifIXsr14is_convertibleIPA_T_PS1_EE5valueEvE4typeEPS5_.exit.i.i

_ZNKSt14default_deleteIA_KcEclIS0_EENSt9enable_ifIXsr14is_convertibleIPA_T_PS1_EE5valueEvE4typeEPS5_.exit.i.i: ; preds = %15
  tail call void @_ZdaPv(ptr noundef nonnull %18) #24
  br label %_ZN7rocksdb6StatusD2Ev.exit

_ZN7rocksdb6StatusD2Ev.exit:                      ; preds = %15, %_ZNKSt14default_deleteIA_KcEclIS0_EENSt9enable_ifIXsr14is_convertibleIPA_T_PS1_EE5valueEvE4typeEPS5_.exit.i.i
  store ptr null, ptr %17, align 8, !tbaa !53
  resume { ptr, i32 } %16

19:                                               ; preds = %2, %11
  ret void
}